; Function Attrs: nounwind uwtable
define i64 @f64_recip7(i64 %0) local_unnamed_addr #0 {
  %2 = tail call i64 @f64_classify(i64 %0) #3
  %3 = trunc i64 %2 to i32
  switch i32 %3, label %18 [
    i32 1, label %64
    i32 128, label %4
    i32 8, label %5
    i32 16, label %9
    i32 256, label %13
    i32 512, label %17
    i32 4, label %.preheader.i
    i32 32, label %.preheader.i
  ]

4:                                                ; preds = %1
  br label %64

5:                                                ; preds = %1
  %6 = tail call align 1 ptr @llvm.threadlocal.address.p0(ptr align 1 @softfloat_exceptionFlags)
  %7 = load i8, ptr %6, align 1, !tbaa !3
  %8 = or i8 %7, 8
  store i8 %8, ptr %6, align 1, !tbaa !3
  br label %64

9:                                                ; preds = %1
  %10 = tail call align 1 ptr @llvm.threadlocal.address.p0(ptr align 1 @softfloat_exceptionFlags)
  %11 = load i8, ptr %10, align 1, !tbaa !3
  %12 = or i8 %11, 8
  store i8 %12, ptr %10, align 1, !tbaa !3
  br label %64

13:                                               ; preds = %1
  %14 = tail call align 1 ptr @llvm.threadlocal.address.p0(ptr align 1 @softfloat_exceptionFlags)
  %15 = load i8, ptr %14, align 1, !tbaa !3
  %16 = or i8 %15, 16
  store i8 %16, ptr %14, align 1, !tbaa !3
  br label %17

17:                                               ; preds = %13, %1
  br label %64

18:                                               ; preds = %1
  %19 = lshr i64 %0, 52
  %20 = and i64 %19, 2047
  %21 = and i64 %0, 4503599627370495
  br label %41

.preheader.i:                                     ; preds = %1, %1
  %22 = tail call align 1 ptr @llvm.threadlocal.address.p0(ptr align 1 @softfloat_roundingMode)
  %23 = load i8, ptr %22, align 1, !tbaa !3
  %24 = lshr i64 %0, 52
  %25 = and i64 %24, 2047
  %26 = and i64 %0, 2251799813685248
  %27 = icmp eq i64 %26, 0
  br i1 %27, label %.lr.ph.i, label %._crit_edge.i

.lr.ph.i:                                         ; preds = %.preheader.i, %.lr.ph.i
  %.169.i = phi i64 [ %28, %.lr.ph.i ], [ %25, %.preheader.i ]
  %.16268.i = phi i64 [ %29, %.lr.ph.i ], [ %0, %.preheader.i ]
  %28 = add i64 %.169.i, -1
  %29 = shl i64 %.16268.i, 1
  %30 = and i64 %.16268.i, 1125899906842624
  %31 = icmp eq i64 %30, 0
  br i1 %31, label %.lr.ph.i, label %._crit_edge.i, !llvm.loop !8

._crit_edge.i:                                    ; preds = %.lr.ph.i, %.preheader.i
  %.162.lcssa.i = phi i64 [ %0, %.preheader.i ], [ %29, %.lr.ph.i ]
  %.1.lcssa.i = phi i64 [ %25, %.preheader.i ], [ %28, %.lr.ph.i ]
  %32 = shl i64 %.162.lcssa.i, 1
  %33 = and i64 %32, 4503599627370494
  %34 = add i64 %.1.lcssa.i, -1
  %or.cond.i = icmp ult i64 %34, -2
  br i1 %or.cond.i, label %35, label %41

35:                                               ; preds = %._crit_edge.i
  %36 = icmp eq i8 %23, 1
  br i1 %36, label %58, label %37

37:                                               ; preds = %35
  %38 = icmp ne i8 %23, 2
  %39 = icmp slt i64 %0, 0
  %or.cond3.i = select i1 %38, i1 true, i1 %39
  %or.cond3.not.i = xor i1 %or.cond3.i, true
  %40 = icmp eq i8 %23, 3
  %or.cond5.i = select i1 %40, i1 %39, i1 false
  %or.cond66.i = select i1 %or.cond3.not.i, i1 true, i1 %or.cond5.i
  %spec.select = select i1 %or.cond66.i, i64 9218868437227405311, i64 9218868437227405312
  br label %58

41:                                               ; preds = %18, %._crit_edge.i
  %.061.i = phi i64 [ %33, %._crit_edge.i ], [ %21, %18 ]
  %.060.i = phi i64 [ %.1.lcssa.i, %._crit_edge.i ], [ %20, %18 ]
  %42 = and i64 %0, -9223372036854775808
  %43 = lshr i64 %.061.i, 45
  %44 = getelementptr inbounds nuw [128 x i8], ptr @recip7.table, i64 0, i64 %43
  %45 = load i8, ptr %44, align 1, !tbaa !3
  %46 = zext i8 %45 to i64
  %47 = shl nuw nsw i64 %46, 45
  %48 = sub nsw i64 2045, %.060.i
  %49 = add nsw i64 %.060.i, -2045
  %or.cond7.i = icmp ult i64 %49, 2
  br i1 %or.cond7.i, label %50, label %recip7.exit

50:                                               ; preds = %41
  %51 = icmp eq i64 %.060.i, 2046
  %52 = shl nuw nsw i64 %46, 44
  %53 = or i64 %52, 2251799813685248
  %54 = zext i1 %51 to i64
  %spec.select.i = lshr exact i64 %53, %54
  %spec.select67.i = select i1 %51, i64 0, i64 %48
  br label %recip7.exit

recip7.exit:                                      ; preds = %41, %50
  %.058.i = phi i64 [ %47, %41 ], [ %spec.select.i, %50 ]
  %.0.i = phi i64 [ %48, %41 ], [ %spec.select67.i, %50 ]
  %55 = shl nsw i64 %.0.i, 52
  %56 = or i64 %.058.i, %42
  %57 = or i64 %56, %55
  br label %64

58:                                               ; preds = %37, %35
  %.sink14 = phi i64 [ 9218868437227405311, %35 ], [ %spec.select, %37 ]
  %59 = and i64 %0, -9223372036854775808
  %60 = or disjoint i64 %59, %.sink14
  %61 = tail call align 1 ptr @llvm.threadlocal.address.p0(ptr align 1 @softfloat_exceptionFlags)
  %62 = load i8, ptr %61, align 1, !tbaa !3
  %63 = or i8 %62, 5
  store i8 %63, ptr %61, align 1, !tbaa !3
  br label %64

64:                                               ; preds = %recip7.exit, %1, %58, %17, %9, %5, %4
  %.sroa.0.0 = phi i64 [ %60, %58 ], [ %57, %recip7.exit ], [ 9221120237041090560, %17 ], [ 9218868437227405312, %9 ], [ -4503599627370496, %5 ], [ 0, %4 ], [ -9223372036854775808, %1 ]
  ret i64 %.sroa.0.0
}